; Function Attrs: mustprogress uwtable
define dso_local void @_ZNK7doctest6detail13ResultBuilder5reactEv(ptr noundef nonnull readonly align 8 captures(none) dereferenceable(144) %0) local_unnamed_addr #8 align 2 {
  %2 = getelementptr inbounds nuw i8, ptr %0, i64 40
  %3 = load i8, ptr %2, align 8, !tbaa !302, !range !22, !noundef !23
  %4 = trunc nuw i8 %3 to i1
  br i1 %4, label %5, label %_ZN7doctest6detail18checkIfShouldThrowENS_10assertType4EnumE.exit

5:                                                ; preds = %1
  %6 = getelementptr inbounds nuw i8, ptr %0, i64 8
  %7 = load i32, ptr %6, align 8, !tbaa !298
  %8 = and i32 %7, 4
  %.not.i = icmp eq i32 %8, 0
  br i1 %.not.i, label %9, label %26

9:                                                ; preds = %5
  %10 = and i32 %7, 2
  %.not2.i = icmp eq i32 %10, 0
  br i1 %.not2.i, label %_ZN7doctest6detail18checkIfShouldThrowENS_10assertType4EnumE.exit, label %11

11:                                               ; preds = %9
  %12 = load ptr, ptr @_ZN7doctest6detail4g_csE, align 8, !tbaa !73
  %13 = getelementptr inbounds nuw i8, ptr %12, i64 100
  %14 = load i32, ptr %13, align 4, !tbaa !130
  %15 = icmp sgt i32 %14, 0
  br i1 %15, label %16, label %_ZN7doctest6detail18checkIfShouldThrowENS_10assertType4EnumE.exit

16:                                               ; preds = %11
  %17 = getelementptr inbounds nuw i8, ptr %12, i64 156
  %18 = load i32, ptr %17, align 4, !tbaa !131
  %19 = getelementptr inbounds nuw i8, ptr %12, i64 2232
  br label %_ZNKSt13__atomic_baseIiE4loadESt12memory_order.exit.us19.i.i.i

_ZNKSt13__atomic_baseIiE4loadESt12memory_order.exit.us19.i.i.i: ; preds = %_ZNKSt13__atomic_baseIiE4loadESt12memory_order.exit.us19.i.i.i, %16
  %.012.us16.i.i.i = phi i32 [ %21, %_ZNKSt13__atomic_baseIiE4loadESt12memory_order.exit.us19.i.i.i ], [ 0, %16 ]
  %.010.idx11.us17.i.i.i = phi i64 [ %.010.add.us21.i.i.i, %_ZNKSt13__atomic_baseIiE4loadESt12memory_order.exit.us19.i.i.i ], [ 0, %16 ]
  %.010.ptr.us18.i.i.i = getelementptr inbounds nuw i8, ptr %19, i64 %.010.idx11.us17.i.i.i
  %20 = load atomic i32, ptr %.010.ptr.us18.i.i.i seq_cst, align 4
  %21 = add nsw i32 %20, %.012.us16.i.i.i
  %.010.add.us21.i.i.i = add nuw nsw i64 %.010.idx11.us17.i.i.i, 64
  %.not.us22.i.i.i = icmp eq i64 %.010.add.us21.i.i.i, 2048
  br i1 %.not.us22.i.i.i, label %_ZNK7doctest6detail15MultiLaneAtomicIiEcviEv.exit.i, label %_ZNKSt13__atomic_baseIiE4loadESt12memory_order.exit.us19.i.i.i

_ZNK7doctest6detail15MultiLaneAtomicIiEcviEv.exit.i: ; preds = %_ZNKSt13__atomic_baseIiE4loadESt12memory_order.exit.us19.i.i.i
  %22 = add nsw i32 %21, %18
  %23 = load ptr, ptr @_ZN7doctest6detail4g_csE, align 8, !tbaa !73
  %24 = getelementptr inbounds nuw i8, ptr %23, i64 100
  %25 = load i32, ptr %24, align 4, !tbaa !130
  %.not3.i = icmp slt i32 %22, %25
  br i1 %.not3.i, label %_ZN7doctest6detail18checkIfShouldThrowENS_10assertType4EnumE.exit, label %26

26:                                               ; preds = %5, %_ZNK7doctest6detail15MultiLaneAtomicIiEcviEv.exit.i
  tail call void @_ZN7doctest6detail14throwExceptionEv() #50
  unreachable

_ZN7doctest6detail18checkIfShouldThrowENS_10assertType4EnumE.exit: ; preds = %_ZNK7doctest6detail15MultiLaneAtomicIiEcviEv.exit.i, %11, %9, %1
  ret void
}